target datalayout = "e-m:e-p270:32:32-p271:32:32-p272:64:64-i64:64-i128:128-f80:128-n8:16:32:64-S128"
target triple = "x86_64-pc-linux-gnu"

%class.edit_mutualcorrsDialog = type { %class.QDockWidget, ptr, ptr, ptr }
%class.QDockWidget = type { %class.QWidget }
%class.QWidget = type { %class.QObject, %class.QPaintDevice, ptr }
%class.QObject = type { ptr, %class.QScopedPointer }
%class.QScopedPointer = type { ptr }
%class.QPaintDevice = type { ptr, i16, ptr }

@_ZTV22edit_mutualcorrsDialog = external unnamed_addr constant { [54 x ptr], [10 x ptr] }, align 8

; Function Attrs: mustprogress nounwind uwtable
define void @_ZN22edit_mutualcorrsDialogD2Ev(ptr noundef nonnull align 8 dereferenceable(72) %0) unnamed_addr #4 align 2 {
  %2 = alloca ptr, align 8
  store ptr %0, ptr %2, align 8
  %3 = load ptr, ptr %2, align 8
  store ptr getelementptr inbounds ({ [54 x ptr], [10 x ptr] }, ptr @_ZTV22edit_mutualcorrsDialog, i32 0, i32 0, i32 2), ptr %3, align 8
  %4 = getelementptr inbounds i8, ptr %3, i64 16
  store ptr getelementptr inbounds ({ [54 x ptr], [10 x ptr] }, ptr @_ZTV22edit_mutualcorrsDialog, i32 0, i32 1, i32 2), ptr %4, align 8
  %5 = getelementptr inbounds %class.edit_mutualcorrsDialog, ptr %3, i32 0, i32 1
  %6 = load ptr, ptr %5, align 8
  %7 = icmp eq ptr %6, null
  br i1 %7, label %9, label %8

8:                                                ; preds = %1
  call void @_ZdlPv(ptr noundef %6) #17
  br label %9

9:                                                ; preds = %8, %1
  call void @_ZN11QDockWidgetD2Ev(ptr noundef nonnull align 8 dereferenceable(48) %3) #3
  ret void
}